; Function Attrs: nounwind uwtable
define void @Hop_ObjDelete_rec(ptr noundef %0, ptr noundef %1) local_unnamed_addr #0 {
  %.phi.trans.insert = getelementptr i8, ptr %1, i64 32
  %.val24.pre = load i32, ptr %.phi.trans.insert, align 8
  br label %tailrecurse

tailrecurse:                                      ; preds = %20, %2
  %.val24 = phi i32 [ %.val24.pre, %2 ], [ %.val26, %20 ]
  %.tr33 = phi ptr [ %1, %2 ], [ %12, %20 ]
  %3 = and i32 %.val24, 7
  %.off = add nsw i32 %3, -1
  %switch = icmp ult i32 %.off, 2
  br i1 %switch, label %25, label %4

4:                                                ; preds = %tailrecurse
  %5 = getelementptr i8, ptr %.tr33, i64 16
  %.val = load ptr, ptr %5, align 8
  %6 = ptrtoint ptr %.val to i64
  %7 = and i64 %6, -2
  %8 = inttoptr i64 %7 to ptr
  %9 = getelementptr i8, ptr %.tr33, i64 24
  %.val22 = load ptr, ptr %9, align 8
  %10 = ptrtoint ptr %.val22 to i64
  %11 = and i64 %10, -2
  %12 = inttoptr i64 %11 to ptr
  tail call void @Hop_ObjDelete(ptr noundef %0, ptr noundef nonnull %.tr33)
  %.not18 = icmp eq i64 %7, 0
  br i1 %.not18, label %19, label %13

13:                                               ; preds = %4
  %14 = getelementptr i8, ptr %8, i64 32
  %.val25 = load i32, ptr %14, align 8
  %15 = and i32 %.val25, 7
  %16 = icmp ne i32 %15, 0
  %17 = icmp ult i32 %.val25, 64
  %or.cond = and i1 %17, %16
  br i1 %or.cond, label %18, label %19

18:                                               ; preds = %13
  tail call void @Hop_ObjDelete_rec(ptr noundef %0, ptr noundef nonnull %8)
  br label %19

19:                                               ; preds = %18, %13, %4
  %.not20 = icmp eq i64 %11, 0
  br i1 %.not20, label %25, label %20

20:                                               ; preds = %19
  %21 = getelementptr i8, ptr %12, i64 32
  %.val26 = load i32, ptr %21, align 8
  %22 = and i32 %.val26, 7
  %23 = icmp ne i32 %22, 0
  %24 = icmp ult i32 %.val26, 64
  %or.cond31 = and i1 %24, %23
  br i1 %or.cond31, label %tailrecurse, label %25

25:                                               ; preds = %tailrecurse, %20, %19
  ret void
}